target datalayout = "e-m:e-p270:32:32-p271:32:32-p272:64:64-i64:64-i128:128-f80:128-n8:16:32:64-S128"
target triple = "x86_64-pc-linux-gnu"

; Function Attrs: nounwind uwtable
define internal i32 @recv_fully(i32 noundef %0, ptr noundef %1, i32 noundef %2) #0 {
  %4 = alloca i32, align 4
  %5 = alloca i32, align 4
  %6 = alloca ptr, align 8
  %7 = alloca i32, align 4
  %8 = alloca i32, align 4
  %9 = alloca i32, align 4
  store i32 %0, ptr %5, align 4
  store ptr %1, ptr %6, align 8
  store i32 %2, ptr %7, align 4
  store i32 0, ptr %8, align 4
  br label %10

10:                                               ; preds = %34, %3
  %11 = load i32, ptr %8, align 4
  %12 = load i32, ptr %7, align 4
  %13 = icmp slt i32 %11, %12
  br i1 %13, label %14, label %38

14:                                               ; preds = %10
  %15 = load i32, ptr %5, align 4
  %16 = load ptr, ptr %6, align 8
  %17 = load i32, ptr %8, align 4
  %18 = sext i32 %17 to i64
  %19 = getelementptr inbounds i8, ptr %16, i64 %18
  %20 = load i32, ptr %7, align 4
  %21 = load i32, ptr %8, align 4
  %22 = sub nsw i32 %20, %21
  %23 = sext i32 %22 to i64
  %24 = call i32 @dbgsysRecv(i32 noundef %15, ptr noundef %19, i64 noundef %23, i32 noundef 0)
  store i32 %24, ptr %9, align 4
  %25 = load i32, ptr %9, align 4
  %26 = icmp slt i32 %25, 0
  br i1 %26, label %27, label %29

27:                                               ; preds = %14
  %28 = load i32, ptr %9, align 4
  store i32 %28, ptr %4, align 4
  br label %40

29:                                               ; preds = %14
  %30 = load i32, ptr %9, align 4
  %31 = icmp eq i32 %30, 0
  br i1 %31, label %32, label %33

32:                                               ; preds = %29
  br label %38

33:                                               ; preds = %29
  br label %34

34:                                               ; preds = %33
  %35 = load i32, ptr %9, align 4
  %36 = load i32, ptr %8, align 4
  %37 = add nsw i32 %36, %35
  store i32 %37, ptr %8, align 4
  br label %10, !llvm.loop !13

38:                                               ; preds = %32, %10
  %39 = load i32, ptr %8, align 4
  store i32 %39, ptr %4, align 4
  br label %40

40:                                               ; preds = %38, %27
  %41 = load i32, ptr %4, align 4
  ret i32 %41
}