; Function Attrs: nounwind uwtable
define internal fastcc i32 @recv_fully(i32 noundef %0, ptr noundef %1, i32 noundef %2) unnamed_addr #0 {
  %4 = icmp sgt i32 %2, 0
  br i1 %4, label %.lr.ph, label %._crit_edge

.lr.ph:                                           ; preds = %3, %13
  %.01316 = phi i32 [ %14, %13 ], [ 0, %3 ]
  %5 = zext nneg i32 %.01316 to i64
  %6 = getelementptr inbounds i8, ptr %1, i64 %5
  %7 = sub nsw i32 %2, %.01316
  %8 = sext i32 %7 to i64
  %9 = tail call i32 @dbgsysRecv(i32 noundef %0, ptr noundef %6, i64 noundef %8, i32 noundef 0) #13
  %10 = icmp slt i32 %9, 0
  br i1 %10, label %._crit_edge, label %11

11:                                               ; preds = %.lr.ph
  %12 = icmp eq i32 %9, 0
  br i1 %12, label %._crit_edge, label %13

13:                                               ; preds = %11
  %14 = add nuw nsw i32 %9, %.01316
  %15 = icmp slt i32 %14, %2
  br i1 %15, label %.lr.ph, label %._crit_edge, !llvm.loop !15

._crit_edge:                                      ; preds = %.lr.ph, %11, %13, %3
  %.0 = phi i32 [ 0, %3 ], [ %14, %13 ], [ %.01316, %11 ], [ %9, %.lr.ph ]
  ret i32 %.0
}